/*
 * PPC64 - Based on public domain code by Jeffrey Walton
 *
 * Copyright (c) 2022 Tino Reichardt <milky-zfs@mcmilk.de>
 * Public domain with CC0 1.0.
 */

#if (defined(__PPC64__) && defined(__LITTLE_ENDIAN__))
	.abiversion 2
	.section	".toc","aw"
	.align 3
	.section	".text"
	.machine power8
	.align 2
	.globl sha256_process_p8
	.type	sha256_process_p8, @function
sha256_process_p8:
.LFB30:
	.cfi_startproc
0:	addis 2,12,.TOC.-0b@ha
	addi 2,2,.TOC.-0b@l
	.localentry	sha256_process_p8,.-sha256_process_p8
	mflr 0
	addi 8,3,16
	addis 9,2,.LANCHOR0@toc@ha
	li 7,16
	addi 9,9,.LANCHOR0@toc@l
	li 6,32
	li 11,48
	std 0,16(1)
	mr 0,1
	.cfi_offset 65, 16
	bl _savevr_22
	.cfi_offset 99, -160
	.cfi_offset 100, -144
	.cfi_offset 101, -128
	.cfi_offset 102, -112
	.cfi_offset 103, -96
	.cfi_offset 104, -80
	.cfi_offset 105, -64
	.cfi_offset 106, -48
	.cfi_offset 107, -32
	.cfi_offset 108, -16
	lxvd2x 45,0,3
	lxvd2x 43,0,8
	xxpermdi 45,45,45,2
	xxpermdi 43,43,43,2
.L2:
	cmpdi 7,5,0
	beq 7,.L8
	addis 10,2,.LC0@toc@ha
	vshasigmaw 12,11,1,15
	vsldoi 7,11,11,12
	lxvd2x 38,0,4
	lvx 5,0,9
	addi 10,10,.LC0@toc@l
	vsldoi 10,13,13,12
	lvx 24,11,9
	vsldoi 8,7,7,12
	lxvd2x 49,0,10
	vsldoi 19,10,10,12
	li 10,64
	vsldoi 4,8,8,12
	xxsel 32,40,39,43
	xxpermdi 38,38,38,2
	vsldoi 9,19,19,12
	vadduwm 1,12,4
	xxlxor 44,45,42
	xxpermdi 49,49,49,2
	vadduwm 1,1,0
	vshasigmaw 0,13,1,0
	xxlnand 49,49,49
	xxsel 44,42,51,44
	vadduwm 1,1,5
	vsldoi 5,5,5,12
	vperm 6,6,6,17
	vadduwm 1,1,6
	vadduwm 9,1,9
	vadduwm 0,0,12
	vsldoi 12,6,6,12
	vshasigmaw 4,9,1,15
	vadduwm 0,1,0
	xxsel 33,39,43,41
	xxlor 57,44,44
	vadduwm 8,4,8
	vshasigmaw 4,0,1,0
	vadduwm 8,8,1
	xxlxor 33,32,45
	vadduwm 8,8,5
	xxsel 33,45,42,33
	vsldoi 5,5,5,12
	vadduwm 8,8,12
	vsldoi 12,12,12,12
	vadduwm 1,4,1
	vadduwm 19,8,19
	xxlor 58,44,44
	vadduwm 1,8,1
	vshasigmaw 4,19,1,15
	xxsel 40,43,41,51
	vadduwm 7,4,7
	vshasigmaw 4,1,1,0
	vadduwm 7,7,8
	xxlxor 40,33,32
	vadduwm 7,7,5
	xxsel 40,32,45,40
	vsldoi 5,5,5,12
	vadduwm 7,7,12
	vsldoi 12,12,12,12
	vadduwm 8,4,8
	lxvd2x 36,7,4
	vadduwm 2,7,10
	xxlor 59,44,44
	vadduwm 8,7,8
	vshasigmaw 10,2,1,15
	xxsel 39,41,51,34
	xxpermdi 36,36,36,2
	vperm 4,4,4,17
	vadduwm 10,11,10
	vadduwm 10,10,7
	vadduwm 5,10,5
	vshasigmaw 10,8,1,0
	vadduwm 5,5,12
	xxlxor 44,40,33
	vadduwm 7,13,5
	xxsel 44,33,32,44
	vshasigmaw 3,7,1,15
	vadduwm 12,10,12
	xxsel 42,51,34,39
	vadduwm 12,5,12
	lvx 5,7,9
	vshasigmaw 18,12,1,0
	vadduwm 9,9,3
	vadduwm 9,9,10
	xxlxor 42,44,40
	vadduwm 9,9,5
	xxsel 42,40,33,42
	vsldoi 5,5,5,12
	vadduwm 9,9,4
	vadduwm 10,18,10
	vadduwm 3,0,9
	vadduwm 10,9,10
	vsldoi 0,4,4,12
	vshasigmaw 18,3,1,15
	xxsel 41,34,39,35
	vshasigmaw 16,10,1,0
	xxlor 62,32,32
	vadduwm 19,19,18
	vadduwm 19,19,9
	xxlxor 41,42,44
	vadduwm 19,19,5
	xxsel 41,44,40,41
	vsldoi 5,5,5,12
	vadduwm 19,19,0
	vadduwm 9,16,9
	vsldoi 0,0,0,12
	vadduwm 18,1,19
	vadduwm 9,19,9
	xxlor 46,32,32
	vshasigmaw 19,18,1,15
	xxsel 33,39,35,50
	vadduwm 2,2,19
	vshasigmaw 19,9,1,0
	vadduwm 2,2,1
	xxlxor 33,41,42
	vadduwm 2,2,5
	xxsel 33,42,44,33
	vsldoi 5,5,5,12
	vadduwm 2,2,0
	vsldoi 0,0,0,12
	vadduwm 1,19,1
	vadduwm 8,8,2
	xxlor 47,32,32
	vadduwm 1,2,1
	vshasigmaw 19,8,1,15
	xxsel 34,35,50,40
	vadduwm 7,7,19
	vadduwm 7,7,2
	vadduwm 5,7,5
	vshasigmaw 7,1,1,0
	vadduwm 5,5,0
	xxlxor 32,33,41
	vadduwm 19,12,5
	xxsel 32,41,42,32
	vshasigmaw 2,19,1,15
	xxsel 44,50,40,51
	vadduwm 0,7,0
	lxvd2x 39,6,4
	vadduwm 0,5,0
	lvx 5,6,9
	vshasigmaw 16,0,1,0
	xxpermdi 39,39,39,2
	vadduwm 2,3,2
	vperm 7,7,7,17
	vadduwm 2,2,12
	xxlxor 44,32,33
	vadduwm 2,2,5
	xxsel 44,33,41,44
	vsldoi 5,5,5,12
	vadduwm 2,2,7
	vadduwm 12,16,12
	vadduwm 3,10,2
	vadduwm 12,2,12
	vsldoi 2,7,7,12
	vshasigmaw 16,3,1,15
	xxsel 42,40,51,35
	xxlor 60,34,34
	vadduwm 18,18,16
	vshasigmaw 16,12,1,0
	vadduwm 18,18,10
	xxlxor 42,44,32
	vadduwm 18,18,5
	xxsel 42,32,33,42
	vsldoi 5,5,5,12
	vadduwm 18,18,2
	vsldoi 2,2,2,12
	vadduwm 10,16,10
	vadduwm 9,9,18
	xxlor 61,34,34
	vadduwm 10,18,10
	vshasigmaw 16,9,1,15
	xxsel 50,51,35,41
	vshasigmaw 31,10,1,0
	vadduwm 8,8,16
	vadduwm 16,8,18
	xxlxor 40,42,44
	vadduwm 16,16,5
	xxsel 40,44,32,40
	vsldoi 5,5,5,12
	vadduwm 16,16,2
	vadduwm 8,31,8
	vsldoi 2,2,2,12
	vadduwm 18,1,16
	vadduwm 8,16,8
	xxlor 63,34,34
	vshasigmaw 16,18,1,15
	xxsel 33,35,41,50
	vadduwm 19,19,16
	vadduwm 19,19,1
	vshasigmaw 1,8,1,0
	vadduwm 5,19,5
	vadduwm 5,5,2
	xxlxor 34,40,42
	vadduwm 19,0,5
	xxsel 34,42,44,34
	vadduwm 2,1,2
	vshasigmaw 1,19,1,15
	xxsel 32,41,50,51
	vadduwm 2,5,2
	lxvd2x 37,11,4
	addi 4,4,64
	vadduwm 3,3,1
	xxpermdi 37,37,37,2
	vshasigmaw 1,2,1,0
	vadduwm 3,3,0
	vperm 5,5,5,17
	xxlxor 32,34,40
	vadduwm 3,3,24
	vsldoi 24,24,24,12
	xxsel 32,40,42,32
	vadduwm 3,3,5
	vadduwm 12,12,3
	vadduwm 0,1,0
	vshasigmaw 16,12,1,15
	xxsel 33,50,51,44
	vadduwm 0,3,0
	vsldoi 3,5,5,12
	xxlor 49,35,35
	vadduwm 9,9,16
	vshasigmaw 16,0,1,0
	vadduwm 9,9,1
	xxlxor 33,32,34
	vadduwm 9,9,24
	xxsel 33,34,40,33
	vsldoi 24,24,24,12
	vadduwm 9,9,3
	vsldoi 3,3,3,12
	vadduwm 1,16,1
	vadduwm 10,10,9
	xxlor 48,35,35
	vadduwm 1,9,1
	vshasigmaw 23,10,1,15
	xxsel 41,51,44,42
	vadduwm 18,18,23
	vshasigmaw 23,1,1,0
	vadduwm 18,18,9
	xxlxor 41,33,32
	vadduwm 18,18,24
	xxsel 41,32,34,41
	vsldoi 24,24,24,12
	vadduwm 18,18,3
	vsldoi 3,3,3,12
	vadduwm 9,23,9
	vadduwm 8,8,18
	vadduwm 9,18,9
	xxlor 50,35,35
	vshasigmaw 22,8,1,15
	xxsel 55,44,42,40
	vadduwm 19,19,22
	vadduwm 19,19,23
	vadduwm 24,19,24
	vshasigmaw 19,9,1,0
	vadduwm 24,24,3
	xxlxor 35,41,33
	xxsel 35,33,32,35
	vadduwm 2,2,24
	vadduwm 3,19,3
	vadduwm 3,24,3
.L4:
	vshasigmaw 23,25,0,0
	vshasigmaw 24,16,0,15
	lvx 19,9,10
	addi 0,10,16
	xxlxor 54,35,41
	xxsel 54,41,33,54
	vadduwm 24,23,24
	vshasigmaw 23,2,1,15
	vadduwm 24,24,28
	vadduwm 6,6,24
	xxsel 56,42,40,34
	vadduwm 12,12,23
	vshasigmaw 23,26,0,0
	vadduwm 12,12,24
	vshasigmaw 24,3,1,0
	vadduwm 12,12,19
	vadduwm 12,6,12
	vadduwm 0,0,12
	vadduwm 22,24,22
	vsldoi 24,19,19,12
	vadduwm 22,12,22
	vshasigmaw 12,18,0,15
	vadduwm 12,23,12
	xxsel 55,40,34,32
	vadduwm 12,12,29
	vadduwm 25,25,12
	vshasigmaw 12,0,1,15
	vadduwm 10,10,12
	vshasigmaw 12,22,1,0
	vadduwm 10,10,23
	xxlxor 55,54,35
	vadduwm 10,10,24
	xxsel 55,35,41,55
	vshasigmaw 24,27,0,0
	vadduwm 10,25,10
	vadduwm 23,12,23
	vsldoi 12,19,19,8
	vadduwm 1,1,10
	vsldoi 19,19,19,4
	vadduwm 23,10,23
	vshasigmaw 10,6,0,15
	vadduwm 10,24,10
	vshasigmaw 24,1,1,15
	vadduwm 10,10,31
	vadduwm 26,26,10
	xxsel 42,34,32,33
	vadduwm 8,8,24
	xxlxor 56,55,54
	vadduwm 8,8,10
	xxsel 56,54,35,56
	vshasigmaw 10,4,0,0
	vadduwm 8,8,12
	vshasigmaw 12,23,1,0
	vadduwm 8,26,8
	vadduwm 9,9,8
	vadduwm 24,12,24
	vshasigmaw 12,25,0,15
	vadduwm 24,8,24
	vshasigmaw 8,9,1,15
	vadduwm 12,10,12
	vshasigmaw 10,26,0,15
	vadduwm 12,12,5
	vadduwm 2,2,8
	vshasigmaw 8,30,0,0
	vadduwm 27,27,12
	xxsel 44,32,33,41
	vadduwm 2,2,12
	vshasigmaw 12,24,1,0
	vadduwm 2,2,19
	xxlxor 51,56,55
	vadduwm 2,27,2
	vadduwm 10,8,10
	xxsel 51,55,54,51
	vadduwm 3,3,2
	vadduwm 10,10,17
	vadduwm 19,12,19
	lvx 12,9,0
	addi 0,10,32
	vshasigmaw 8,3,1,15
	vadduwm 4,4,10
	vadduwm 19,2,19
	xxsel 42,33,41,35
	vsldoi 2,12,12,12
	vadduwm 0,0,8
	vshasigmaw 8,19,1,0
	vadduwm 0,0,10
	xxlxor 42,51,56
	vadduwm 0,0,12
	xxsel 42,56,55,42
	vadduwm 0,4,0
	vadduwm 10,8,10
	vshasigmaw 8,14,0,0
	vadduwm 22,22,0
	vadduwm 10,0,10
	vshasigmaw 0,27,0,15
	vadduwm 0,8,0
	xxsel 40,41,35,54
	vadduwm 0,0,16
	vadduwm 30,30,0
	vshasigmaw 0,22,1,15
	vadduwm 1,1,0
	vshasigmaw 0,10,1,0
	vadduwm 1,1,8
	xxlxor 40,42,51
	vadduwm 1,1,2
	xxsel 40,51,56,40
	vshasigmaw 2,15,0,0
	vadduwm 1,30,1
	vadduwm 8,0,8
	vsldoi 0,12,12,8
	vadduwm 23,23,1
	vsldoi 12,12,12,4
	vadduwm 8,1,8
	vshasigmaw 1,4,0,15
	vadduwm 1,2,1
	vshasigmaw 2,23,1,15
	vadduwm 1,1,18
	vadduwm 14,14,1
	xxsel 33,35,54,55
	vadduwm 9,9,2
	lvx 2,9,0
	addi 0,10,48
	addi 10,10,64
	cmpldi 7,10,256
	vadduwm 9,9,1
	xxlxor 33,40,42
	vadduwm 9,9,0
	vshasigmaw 0,8,1,0
	xxsel 33,42,51,33
	vadduwm 9,14,9
	vadduwm 24,24,9
	vadduwm 1,0,1
	vshasigmaw 0,30,0,15
	vadduwm 1,9,1
	vshasigmaw 9,7,0,0
	vadduwm 0,9,0
	vshasigmaw 9,24,1,15
	vadduwm 0,0,6
	vadduwm 15,15,0
	xxsel 32,54,55,56
	vadduwm 3,3,9
	vshasigmaw 9,1,1,0
	vadduwm 3,3,0
	xxlxor 32,33,40
	vadduwm 12,3,12
	xxsel 32,40,42,32
	vadduwm 12,15,12
	vadduwm 0,9,0
	vshasigmaw 9,28,0,0
	vadduwm 19,19,12
	vadduwm 0,12,0
	vshasigmaw 12,14,0,15
	vshasigmaw 3,0,1,0
	vadduwm 12,9,12
	vshasigmaw 9,19,1,15
	vadduwm 12,12,25
	vadduwm 7,7,12
	xxsel 44,55,56,51
	vadduwm 22,22,9
	vadduwm 9,22,12
	xxlxor 44,32,33
	vadduwm 9,9,2
	xxsel 44,33,40,44
	vadduwm 9,7,9
	vadduwm 12,3,12
	vshasigmaw 3,29,0,0
	vadduwm 22,10,9
	vshasigmaw 10,15,0,15
	vadduwm 12,9,12
	vsldoi 9,2,2,12
	vadduwm 10,3,10
	vshasigmaw 3,22,1,15
	vadduwm 10,10,26
	vadduwm 28,28,10
	xxsel 42,56,51,54
	vadduwm 23,23,3
	vshasigmaw 3,12,1,0
	vadduwm 23,23,10
	xxlxor 42,44,32
	vadduwm 23,23,9
	xxsel 42,32,33,42
	vadduwm 23,28,23
	vadduwm 10,3,10
	vshasigmaw 3,31,0,0
	vadduwm 9,8,23
	vshasigmaw 8,7,0,15
	vadduwm 10,23,10
	vsldoi 23,2,2,8
	vsldoi 2,2,2,4
	vadduwm 8,3,8
	vshasigmaw 3,9,1,15
	vadduwm 8,8,27
	vadduwm 29,29,8
	xxsel 40,51,54,41
	vadduwm 24,24,3
	vadduwm 3,24,8
	xxlxor 40,42,44
	vadduwm 3,3,23
	vshasigmaw 23,10,1,0
	xxsel 40,44,32,40
	vadduwm 3,29,3
	vadduwm 24,1,3
	vshasigmaw 1,28,0,15
	vadduwm 8,23,8
	vadduwm 8,3,8
	vshasigmaw 3,5,0,0
	vadduwm 1,3,1
	xxsel 35,54,41,56
	vadduwm 1,1,4
	vadduwm 31,31,1
	vshasigmaw 1,24,1,15
	vadduwm 19,19,1
	vadduwm 1,19,3
	vshasigmaw 3,8,1,0
	vadduwm 1,1,2
	xxlxor 34,40,42
	xxsel 34,42,44,34
	vadduwm 1,31,1
	vadduwm 19,0,1
	vshasigmaw 0,29,0,15
	vadduwm 2,3,2
	lvx 3,9,0
	vadduwm 2,1,2
	vshasigmaw 1,17,0,0
	vsldoi 23,3,3,12
	vadduwm 0,1,0
	vshasigmaw 1,19,1,15
	vadduwm 0,0,30
	vadduwm 5,5,0
	xxsel 32,41,56,51
	vadduwm 22,22,1
	vshasigmaw 1,2,1,0
	vadduwm 22,22,0
	xxlxor 32,34,40
	vadduwm 22,22,3
	xxsel 32,40,42,32
	vadduwm 22,5,22
	vadduwm 0,1,0
	vshasigmaw 1,31,0,15
	vadduwm 12,12,22
	vadduwm 0,22,0
	vshasigmaw 22,16,0,0
	vadduwm 1,22,1
	vshasigmaw 22,12,1,15
	vadduwm 1,1,14
	vadduwm 17,17,1
	xxsel 33,56,51,44
	vadduwm 9,9,22
	vshasigmaw 22,18,0,0
	vadduwm 9,9,1
	xxlxor 33,32,34
	vadduwm 9,9,23
	vshasigmaw 23,0,1,0
	xxsel 33,34,40,33
	vadduwm 9,17,9
	vadduwm 10,10,9
	vadduwm 1,23,1
	vsldoi 23,3,3,8
	vsldoi 3,3,3,4
	vadduwm 1,9,1
	vshasigmaw 9,5,0,15
	vadduwm 9,22,9
	vshasigmaw 22,10,1,15
	vadduwm 9,9,15
	vadduwm 16,16,9
	xxsel 41,51,44,42
	vadduwm 24,24,22
	vadduwm 24,24,9
	xxlxor 41,33,32
	vadduwm 24,24,23
	vshasigmaw 23,1,1,0
	xxsel 41,32,34,41
	vadduwm 24,16,24
	vadduwm 8,8,24
	vadduwm 9,23,9
	vshasigmaw 23,6,0,0
	vadduwm 9,24,9
	vshasigmaw 24,17,0,15
	vadduwm 24,23,24
	vshasigmaw 23,8,1,15
	vadduwm 24,24,7
	vadduwm 18,18,24
	xxsel 56,44,42,40
	vadduwm 19,19,23
	vadduwm 19,19,24
	vshasigmaw 24,9,1,0
	vadduwm 19,19,3
	xxlxor 35,41,33
	xxsel 35,33,32,35
	vadduwm 19,18,19
	vadduwm 2,2,19
	vadduwm 3,24,3
	vadduwm 3,19,3
	bne 7,.L4
	addis 10,2,.LC1@toc@ha
	addi 5,5,-1
	addi 10,10,.LC1@toc@l
	rldicl 5,5,0,32
	lxvd2x 39,0,10
	addis 10,2,.LC2@toc@ha
	addi 10,10,.LC2@toc@l
	lxvd2x 38,0,10
	xxpermdi 39,39,39,2
	xxlnand 39,39,39
	xxpermdi 38,38,38,2
	vperm 9,9,3,7
	vperm 0,0,1,7
	xxlnand 38,38,38
	vperm 8,8,2,7
	vperm 12,12,10,7
	vperm 0,0,9,6
	vperm 6,12,8,6
	vadduwm 13,13,0
	vadduwm 11,11,6
	b .L2
.L8:
	xxpermdi 45,45,45,2
	xxpermdi 43,43,43,2
	mr 0,1
	stxvd2x 45,0,3
	stxvd2x 43,0,8
	bl _restvr_22
	ld 0,16(1)
	mtlr 0
	.cfi_restore 65
	.cfi_restore 108
	.cfi_restore 107
	.cfi_restore 106
	.cfi_restore 105
	.cfi_restore 104
	.cfi_restore 103
	.cfi_restore 102
	.cfi_restore 101
	.cfi_restore 100
	.cfi_restore 99
	blr
	.long 0
	.byte 0,9,0,1,0,0,0,0
	.cfi_endproc
.LFE30:
	.size	sha256_process_p8,.-sha256_process_p8
	.section	.rodata
	.align 4
	.set	.LANCHOR0,. + 0
	.type	_ZL6KEY256, @object
	.size	_ZL6KEY256, 256
_ZL6KEY256:
	.long	1116352408
	.long	1899447441
	.long	-1245643825
	.long	-373957723
	.long	961987163
	.long	1508970993
	.long	-1841331548
	.long	-1424204075
	.long	-670586216
	.long	310598401
	.long	607225278
	.long	1426881987
	.long	1925078388
	.long	-2132889090
	.long	-1680079193
	.long	-1046744716
	.long	-459576895
	.long	-272742522
	.long	264347078
	.long	604807628
	.long	770255983
	.long	1249150122
	.long	1555081692
	.long	1996064986
	.long	-1740746414
	.long	-1473132947
	.long	-1341970488
	.long	-1084653625
	.long	-958395405
	.long	-710438585
	.long	113926993
	.long	338241895
	.long	666307205
	.long	773529912
	.long	1294757372
	.long	1396182291
	.long	1695183700
	.long	1986661051
	.long	-2117940946
	.long	-1838011259
	.long	-1564481375
	.long	-1474664885
	.long	-1035236496
	.long	-949202525
	.long	-778901479
	.long	-694614492
	.long	-200395387
	.long	275423344
	.long	430227734
	.long	506948616
	.long	659060556
	.long	883997877
	.long	958139571
	.long	1322822218
	.long	1537002063
	.long	1747873779
	.long	1955562222
	.long	2024104815
	.long	-2067236844
	.long	-1933114872
	.long	-1866530822
	.long	-1538233109
	.long	-1090935817
	.long	-965641998
	.section	.rodata.cst16,"aM",@progbits,16
	.align 4
.LC0:
	.byte	3
	.byte	2
	.byte	1
	.byte	0
	.byte	7
	.byte	6
	.byte	5
	.byte	4
	.byte	11
	.byte	10
	.byte	9
	.byte	8
	.byte	15
	.byte	14
	.byte	13
	.byte	12
.LC1:
	.byte	0
	.byte	1
	.byte	2
	.byte	3
	.byte	16
	.byte	17
	.byte	18
	.byte	19
	.byte	0
	.byte	0
	.byte	0
	.byte	0
	.byte	0
	.byte	0
	.byte	0
	.byte	0
.LC2:
	.byte	0
	.byte	1
	.byte	2
	.byte	3
	.byte	4
	.byte	5
	.byte	6
	.byte	7
	.byte	16
	.byte	17
	.byte	18
	.byte	19
	.byte	20
	.byte	21
	.byte	22
	.byte	23
	.section	.note.GNU-stack,"",@progbits
#endif
