/*
 * PPC64 - Based on public domain code by Jeffrey Walton
 *
 * Copyright (c) 2022 Tino Reichardt <milky-zfs@mcmilk.de>
 * Public domain with CC0 1.0.
 */

#if (defined(__PPC64__) && defined(__LITTLE_ENDIAN__))
	.abiversion 2
	.section	".toc","aw"
	.align 3
	.section	".text"
	.machine power8
	.align 2
	.globl sha512_process_p8
	.type	sha512_process_p8, @function
sha512_process_p8:
.LFB30:
	.cfi_startproc
0:	addis 2,12,.TOC.-0b@ha
	addi 2,2,.TOC.-0b@l
	.localentry	sha512_process_p8,.-sha512_process_p8
	mflr 0
	addi 6,3,16
	addi 7,3,32
	addi 8,3,48
	addis 9,2,.LANCHOR0@toc@ha
	rldicl 5,5,0,32
	addi 9,9,.LANCHOR0@toc@l
	li 11,16
	.cfi_register 65, 0
	bl _savegpr0_27
	.cfi_offset 27, -40
	.cfi_offset 28, -32
	.cfi_offset 29, -24
	.cfi_offset 30, -16
	.cfi_offset 31, -8
	.cfi_offset 65, 16
	addi 0,1,-48
	li 31,64
	bl _savevr_20
	.cfi_offset 97, -240
	.cfi_offset 98, -224
	.cfi_offset 99, -208
	.cfi_offset 100, -192
	.cfi_offset 101, -176
	.cfi_offset 102, -160
	.cfi_offset 103, -144
	.cfi_offset 104, -128
	.cfi_offset 105, -112
	.cfi_offset 106, -96
	.cfi_offset 107, -80
	.cfi_offset 108, -64
	li 30,80
	li 0,32
	li 12,48
	li 29,96
	lxvd2x 45,0,3
	lxvd2x 47,0,6
	li 28,112
	lxvd2x 43,0,7
	lxvd2x 48,0,8
	xxpermdi 45,45,45,2
	xxpermdi 47,47,47,2
	xxpermdi 43,43,43,2
	xxpermdi 48,48,48,2
.L2:
	cmpdi 7,5,0
	beq 7,.L9
	vshasigmad 10,11,1,15
	addis 10,2,.LC0@toc@ha
	vsldoi 8,11,11,8
	lxvd2x 38,0,4
	lvx 0,0,9
	li 27,4
	mtctr 27
	addi 10,10,.LC0@toc@l
	vsldoi 7,16,16,8
	vsldoi 4,13,13,8
	lxvd2x 50,11,4
	lxvd2x 51,4,0
	xxsel 33,48,40,43
	vsldoi 2,15,15,8
	lxvd2x 41,0,10
	li 10,128
	xxpermdi 38,38,38,2
	xxpermdi 50,50,50,2
	xxpermdi 51,51,51,2
	vaddudm 12,10,7
	xxlxor 42,45,36
	xxpermdi 41,41,41,2
	vaddudm 12,12,1
	vshasigmad 1,13,1,0
	xxlnand 41,41,41
	xxsel 42,36,47,42
	vaddudm 12,12,0
	vsldoi 0,0,0,8
	vperm 6,6,6,9
	vperm 18,18,18,9
	vperm 19,19,19,9
	vaddudm 12,12,6
	vaddudm 1,1,10
	vaddudm 2,12,2
	vsldoi 10,6,6,8
	vaddudm 1,12,1
	vshasigmad 12,2,1,15
	xxsel 39,40,43,34
	xxlor 56,42,42
	vaddudm 12,16,12
	vaddudm 12,12,7
	vaddudm 12,12,0
	xxlxor 32,33,45
	vaddudm 12,12,10
	vshasigmad 10,1,1,0
	xxsel 32,45,36,32
	vaddudm 3,15,12
	vshasigmad 7,3,1,15
	vaddudm 0,10,0
	xxsel 42,43,34,35
	vaddudm 0,12,0
	lvx 12,11,9
	vaddudm 8,7,8
	vshasigmad 7,0,1,0
	vaddudm 8,8,10
	xxlxor 42,32,33
	vaddudm 8,8,12
	xxsel 42,33,45,42
	vsldoi 12,12,12,8
	vaddudm 8,8,18
	vaddudm 10,7,10
	vsldoi 7,18,18,8
	vaddudm 4,8,4
	vaddudm 10,8,10
	xxlor 57,39,39
	vshasigmad 8,4,1,15
	xxsel 37,34,35,36
	vaddudm 8,11,8
	vaddudm 8,8,5
	vshasigmad 5,10,1,0
	vaddudm 8,8,12
	xxlxor 44,42,32
	vaddudm 8,8,7
	xxsel 44,32,33,44
	vaddudm 7,13,8
	vaddudm 12,5,12
	vshasigmad 17,7,1,15
	xxsel 37,35,36,39
	vaddudm 12,8,12
	lvx 8,9,0
	vshasigmad 14,12,1,0
	vaddudm 2,2,17
	vaddudm 2,2,5
	xxlxor 37,44,42
	vaddudm 2,2,8
	xxsel 37,42,32,37
	vsldoi 8,8,8,8
	vaddudm 2,2,19
	vaddudm 5,14,5
	vaddudm 17,1,2
	vaddudm 5,2,5
	vsldoi 1,19,19,8
	vshasigmad 14,17,1,15
	xxsel 34,36,39,49
	xxlor 59,33,33
	vaddudm 3,3,14
	vaddudm 3,3,2
	vaddudm 3,3,8
	xxlxor 40,37,44
	vaddudm 3,3,1
	vshasigmad 1,5,1,0
	xxsel 40,44,42,40
	vaddudm 2,0,3
	lvx 0,12,9
	vshasigmad 14,2,1,15
	vaddudm 8,1,8
	xxsel 33,39,49,34
	vaddudm 8,3,8
	lxvd2x 35,12,4
	vaddudm 4,4,14
	vshasigmad 14,8,1,0
	vaddudm 4,4,1
	xxlxor 33,40,37
	xxpermdi 35,35,35,2
	vaddudm 4,4,0
	xxsel 33,37,44,33
	vperm 3,3,3,9
	vsldoi 0,0,0,8
	vaddudm 4,4,3
	vaddudm 1,14,1
	vaddudm 31,10,4
	vaddudm 1,4,1
	vsldoi 10,3,3,8
	vshasigmad 14,31,1,15
	xxsel 36,49,34,63
	xxlor 61,42,42
	vaddudm 7,7,14
	vaddudm 7,7,4
	vaddudm 7,7,0
	xxlxor 32,33,40
	vaddudm 7,7,10
	vshasigmad 10,1,1,0
	xxsel 32,40,37,32
	vaddudm 4,12,7
	vshasigmad 14,4,1,15
	xxsel 44,34,63,36
	vaddudm 0,10,0
	lvx 10,31,9
	vaddudm 0,7,0
	lxvd2x 39,31,4
	vaddudm 17,17,14
	vshasigmad 14,0,1,0
	vaddudm 17,17,12
	xxlxor 44,32,33
	xxpermdi 39,39,39,2
	vaddudm 17,17,10
	xxsel 44,33,40,44
	vperm 7,7,7,9
	vsldoi 10,10,10,8
	vaddudm 17,17,7
	vaddudm 12,14,12
	vaddudm 5,5,17
	vaddudm 12,17,12
	vsldoi 17,7,7,8
	vshasigmad 30,5,1,15
	xxsel 46,63,36,37
	xxlor 58,49,49
	vaddudm 2,2,30
	vaddudm 2,2,14
	vshasigmad 14,12,1,0
	vaddudm 2,2,10
	xxlxor 42,44,32
	vaddudm 2,2,17
	xxsel 42,32,33,42
	vaddudm 17,8,2
	vaddudm 10,14,10
	lvx 14,30,9
	vshasigmad 30,17,1,15
	xxsel 40,36,37,49
	vaddudm 10,2,10
	lxvd2x 34,30,4
	vshasigmad 28,10,1,0
	xxpermdi 34,34,34,2
	vaddudm 30,31,30
	vperm 2,2,2,9
	vaddudm 30,30,8
	xxlxor 40,42,44
	vaddudm 30,30,14
	xxsel 40,44,32,40
	vsldoi 14,14,14,8
	vaddudm 30,30,2
	vaddudm 8,28,8
	vaddudm 31,1,30
	vaddudm 8,30,8
	vsldoi 1,2,2,8
	vshasigmad 23,31,1,15
	xxsel 62,37,49,63
	xxlor 60,33,33
	vaddudm 4,4,23
	vaddudm 4,4,30
	vaddudm 4,4,14
	xxlxor 46,40,42
	vaddudm 4,4,1
	vshasigmad 1,8,1,0
	xxsel 46,42,44,46
	vaddudm 23,0,4
	vshasigmad 30,23,1,15
	xxsel 32,49,63,55
	vaddudm 14,1,14
	lvx 1,29,9
	vaddudm 14,4,14
	lxvd2x 36,29,4
	vaddudm 5,5,30
	vshasigmad 30,14,1,0
	vaddudm 5,5,0
	xxlxor 32,46,40
	xxpermdi 36,36,36,2
	vaddudm 5,5,1
	xxsel 32,40,42,32
	vperm 4,4,4,9
	vsldoi 1,1,1,8
	vaddudm 5,5,4
	vaddudm 0,30,0
	vaddudm 12,12,5
	vaddudm 0,5,0
	vsldoi 5,4,4,8
	vshasigmad 21,12,1,15
	xxsel 54,63,55,44
	xxlor 62,37,37
	vaddudm 17,17,21
	vaddudm 17,17,22
	vaddudm 17,17,1
	xxlxor 33,32,46
	vaddudm 17,17,5
	vshasigmad 5,0,1,0
	xxsel 33,46,40,33
	vaddudm 10,10,17
	vshasigmad 22,10,1,15
	vaddudm 1,5,1
	lxvd2x 37,28,4
	addi 4,4,128
	vaddudm 1,17,1
	lvx 17,28,9
	vaddudm 31,31,22
	vshasigmad 22,1,1,0
	xxpermdi 37,37,37,2
	vperm 5,5,5,9
	xxsel 41,55,44,42
	vaddudm 31,31,9
	xxlxor 41,33,32
	vaddudm 31,31,17
	xxsel 41,32,46,41
	vsldoi 17,17,17,8
	vaddudm 31,31,5
	vaddudm 9,22,9
	vsldoi 22,5,5,8
	vaddudm 8,8,31
	vaddudm 9,31,9
	xxlor 63,54,54
	vshasigmad 20,8,1,15
	xxsel 53,44,42,40
	vaddudm 23,23,20
	vaddudm 23,23,21
	vaddudm 23,23,17
	xxlxor 49,41,33
	vaddudm 23,23,22
	vshasigmad 22,9,1,0
	xxsel 49,33,32,49
	vaddudm 14,14,23
	vaddudm 17,22,17
	vaddudm 17,23,17
.L4:
	vshasigmad 21,24,0,0
	vshasigmad 22,5,0,15
	lvx 23,9,10
	addi 27,10,16
	vaddudm 22,21,22
	vshasigmad 21,14,1,15
	vaddudm 22,22,26
	vaddudm 6,6,22
	xxsel 54,42,40,46
	vaddudm 12,12,21
	vshasigmad 21,17,1,0
	vaddudm 12,12,22
	xxlxor 54,49,41
	vaddudm 12,12,23
	xxsel 54,41,33,54
	vsldoi 23,23,23,8
	vaddudm 12,6,12
	vaddudm 22,21,22
	vshasigmad 21,18,0,0
	vaddudm 0,0,12
	vaddudm 22,12,22
	vshasigmad 12,31,0,15
	vaddudm 12,21,12
	xxsel 53,40,46,32
	vaddudm 12,12,2
	vaddudm 24,24,12
	vshasigmad 12,0,1,15
	vaddudm 10,10,12
	vshasigmad 12,22,1,0
	vaddudm 10,10,21
	vshasigmad 21,25,0,0
	vaddudm 10,10,23
	xxlxor 55,54,49
	xxsel 55,49,41,55
	vaddudm 10,24,10
	vaddudm 23,12,23
	vaddudm 1,1,10
	lvx 12,9,27
	addi 27,10,32
	vaddudm 23,10,23
	vshasigmad 10,6,0,15
	vaddudm 10,21,10
	vshasigmad 21,1,1,15
	vaddudm 10,10,28
	vaddudm 18,18,10
	xxsel 42,46,32,33
	vaddudm 8,8,21
	vshasigmad 21,23,1,0
	vaddudm 8,8,10
	xxlxor 42,55,54
	vaddudm 8,8,12
	xxsel 42,54,49,42
	vsldoi 12,12,12,8
	vaddudm 8,18,8
	vaddudm 10,21,10
	vshasigmad 21,19,0,0
	vaddudm 9,9,8
	vaddudm 10,8,10
	vshasigmad 8,24,0,15
	vaddudm 8,21,8
	xxsel 53,32,33,41
	vaddudm 8,8,4
	vaddudm 25,25,8
	vshasigmad 8,9,1,15
	vaddudm 14,14,8
	vshasigmad 8,10,1,0
	vaddudm 14,14,21
	vshasigmad 21,27,0,0
	vaddudm 14,14,12
	xxlxor 44,42,55
	xxsel 44,55,54,44
	vaddudm 14,25,14
	vaddudm 12,8,12
	vaddudm 17,17,14
	lvx 8,9,27
	addi 27,10,48
	vaddudm 12,14,12
	vshasigmad 14,18,0,15
	vaddudm 14,21,14
	vshasigmad 21,17,1,15
	vaddudm 14,14,30
	vaddudm 19,19,14
	xxsel 46,33,41,49
	vaddudm 0,0,21
	vshasigmad 21,12,1,0
	vaddudm 0,0,14
	xxlxor 46,44,42
	vaddudm 0,0,8
	xxsel 46,42,55,46
	vsldoi 8,8,8,8
	vaddudm 0,19,0
	vaddudm 14,21,14
	vshasigmad 21,3,0,0
	vaddudm 22,22,0
	vaddudm 14,0,14
	vshasigmad 0,25,0,15
	vaddudm 0,21,0
	xxsel 53,41,49,54
	vaddudm 0,0,5
	vaddudm 27,27,0
	vshasigmad 0,22,1,15
	vaddudm 1,1,0
	vshasigmad 0,14,1,0
	vaddudm 1,1,21
	vshasigmad 21,29,0,0
	vaddudm 1,1,8
	xxlxor 40,46,44
	xxsel 40,44,42,40
	vaddudm 1,27,1
	vaddudm 8,0,8
	vaddudm 23,23,1
	lvx 0,9,27
	addi 27,10,64
	vaddudm 8,1,8
	vshasigmad 1,19,0,15
	vaddudm 1,21,1
	vshasigmad 21,23,1,15
	vaddudm 1,1,31
	vaddudm 3,3,1
	xxsel 33,49,54,55
	vaddudm 9,9,21
	vshasigmad 21,8,1,0
	vaddudm 9,9,1
	xxlxor 33,40,46
	vaddudm 9,9,0
	xxsel 33,46,44,33
	vsldoi 0,0,0,8
	vaddudm 9,3,9
	vaddudm 1,21,1
	vaddudm 20,10,9
	vshasigmad 10,27,0,15
	vaddudm 1,9,1
	vshasigmad 9,7,0,0
	vaddudm 10,9,10
	vshasigmad 9,20,1,15
	vaddudm 10,10,6
	vaddudm 29,29,10
	xxsel 42,54,55,52
	vaddudm 17,17,9
	vshasigmad 9,26,0,0
	vaddudm 17,17,10
	vshasigmad 10,1,1,0
	vaddudm 17,17,0
	xxlxor 32,33,40
	vaddudm 17,29,17
	xxsel 32,40,46,32
	vaddudm 21,12,17
	vshasigmad 12,3,0,15
	vaddudm 0,10,0
	lvx 10,9,27
	addi 27,10,80
	vaddudm 0,17,0
	vaddudm 12,9,12
	vshasigmad 9,21,1,15
	vaddudm 12,12,24
	vaddudm 7,7,12
	xxsel 44,55,52,53
	vaddudm 22,22,9
	vshasigmad 9,0,1,0
	vaddudm 22,22,12
	xxlxor 44,32,33
	vaddudm 22,22,10
	xxsel 44,33,40,44
	vsldoi 10,10,10,8
	vaddudm 22,7,22
	vaddudm 12,9,12
	vshasigmad 9,29,0,15
	vaddudm 17,14,22
	vshasigmad 14,2,0,0
	vaddudm 12,22,12
	vaddudm 9,14,9
	vshasigmad 14,17,1,15
	vaddudm 9,9,18
	vaddudm 26,26,9
	xxsel 41,52,53,49
	vaddudm 23,23,14
	vshasigmad 14,12,1,0
	vaddudm 23,23,9
	vaddudm 23,23,10
	xxlxor 42,44,32
	xxsel 42,32,33,42
	vaddudm 23,26,23
	vaddudm 10,14,10
	vaddudm 9,8,23
	lvx 14,9,27
	addi 27,10,96
	vshasigmad 8,7,0,15
	vaddudm 10,23,10
	vshasigmad 23,28,0,0
	vaddudm 8,23,8
	vshasigmad 23,9,1,15
	vaddudm 8,8,25
	vaddudm 2,2,8
	xxsel 40,53,49,41
	vaddudm 20,20,23
	vshasigmad 23,10,1,0
	vaddudm 20,20,8
	xxlxor 40,42,44
	vaddudm 20,20,14
	xxsel 40,44,32,40
	vsldoi 14,14,14,8
	vaddudm 20,2,20
	vaddudm 8,23,8
	vshasigmad 23,4,0,0
	vaddudm 22,1,20
	vshasigmad 1,26,0,15
	vaddudm 8,20,8
	vaddudm 1,23,1
	vshasigmad 23,22,1,15
	vaddudm 1,1,19
	vaddudm 28,28,1
	xxsel 33,49,41,54
	vaddudm 21,21,23
	vaddudm 21,21,1
	vshasigmad 1,8,1,0
	vaddudm 21,21,14
	xxlxor 46,40,42
	xxsel 46,42,44,46
	vaddudm 21,28,21
	vaddudm 23,0,21
	vshasigmad 0,2,0,15
	vaddudm 14,1,14
	lvx 1,9,27
	addi 27,10,112
	addi 10,10,128
	vaddudm 14,21,14
	vshasigmad 21,30,0,0
	vaddudm 0,21,0
	vshasigmad 21,23,1,15
	vaddudm 0,0,27
	vaddudm 4,4,0
	xxsel 32,41,54,55
	vaddudm 17,17,21
	vshasigmad 21,14,1,0
	vaddudm 17,17,0
	xxlxor 32,46,40
	vaddudm 17,17,1
	xxsel 32,40,42,32
	vsldoi 1,1,1,8
	vaddudm 17,4,17
	vaddudm 0,21,0
	vshasigmad 21,5,0,0
	vaddudm 12,12,17
	vaddudm 0,17,0
	vshasigmad 17,28,0,15
	vaddudm 17,21,17
	vshasigmad 21,12,1,15
	vaddudm 17,17,3
	vaddudm 30,30,17
	xxsel 49,54,55,44
	vaddudm 9,9,21
	vshasigmad 21,31,0,0
	vaddudm 9,9,17
	vshasigmad 17,0,1,0
	vaddudm 9,9,1
	xxlxor 33,32,46
	xxsel 33,46,40,33
	vaddudm 9,30,9
	vaddudm 10,10,9
	vaddudm 1,17,1
	lvx 17,9,27
	vaddudm 1,9,1
	vshasigmad 9,4,0,15
	vaddudm 9,21,9
	vshasigmad 21,10,1,15
	vaddudm 9,9,29
	vaddudm 5,5,9
	xxsel 41,55,44,42
	vaddudm 22,22,21
	vshasigmad 21,1,1,0
	vaddudm 22,22,9
	xxlxor 41,33,32
	vaddudm 22,22,17
	xxsel 41,32,46,41
	vsldoi 17,17,17,8
	vaddudm 22,5,22
	vaddudm 9,21,9
	vshasigmad 21,6,0,0
	vaddudm 8,8,22
	vaddudm 9,22,9
	vshasigmad 22,30,0,15
	vaddudm 22,21,22
	vshasigmad 21,8,1,15
	vaddudm 22,22,7
	vaddudm 31,31,22
	xxsel 54,44,42,40
	vaddudm 23,23,21
	vaddudm 23,23,22
	vshasigmad 22,9,1,0
	vaddudm 23,23,17
	xxlxor 49,41,33
	xxsel 49,33,32,49
	vaddudm 23,31,23
	vaddudm 14,14,23
	vaddudm 17,22,17
	vaddudm 17,23,17
	bdnz .L4
	addis 10,2,.LC1@toc@ha
	addi 5,5,-1
	addi 10,10,.LC1@toc@l
	rldicl 5,5,0,32
	lxvd2x 39,0,10
	xxpermdi 39,39,39,2
	xxlnand 39,39,39
	vperm 9,9,17,7
	vperm 0,0,1,7
	vperm 8,8,14,7
	vperm 12,12,10,7
	vaddudm 13,13,9
	vaddudm 15,15,0
	vaddudm 11,11,8
	vaddudm 16,16,12
	b .L2
.L9:
	xxpermdi 45,45,45,2
	xxpermdi 47,47,47,2
	addi 0,1,-48
	xxpermdi 43,43,43,2
	xxpermdi 48,48,48,2
	stxvd2x 45,0,3
	stxvd2x 47,0,6
	stxvd2x 43,0,7
	stxvd2x 48,0,8
	bl _restvr_20
	b _restgpr0_27
	.cfi_restore 31
	.cfi_restore 30
	.cfi_restore 29
	.cfi_restore 28
	.cfi_restore 27
	.cfi_restore 65
	.cfi_restore 108
	.cfi_restore 107
	.cfi_restore 106
	.cfi_restore 105
	.cfi_restore 104
	.cfi_restore 103
	.cfi_restore 102
	.cfi_restore 101
	.cfi_restore 100
	.cfi_restore 99
	.cfi_restore 98
	.cfi_restore 97
	.long 0
	.byte 0,9,0,1,0,5,0,0
	.cfi_endproc
.LFE30:
	.size	sha512_process_p8,.-sha512_process_p8
	.section	.rodata
	.align 4
	.set	.LANCHOR0,. + 0
	.type	_ZL6KEY512, @object
	.size	_ZL6KEY512, 640
_ZL6KEY512:
	.quad	4794697086780616226
	.quad	8158064640168781261
	.quad	-5349999486874862801
	.quad	-1606136188198331460
	.quad	4131703408338449720
	.quad	6480981068601479193
	.quad	-7908458776815382629
	.quad	-6116909921290321640
	.quad	-2880145864133508542
	.quad	1334009975649890238
	.quad	2608012711638119052
	.quad	6128411473006802146
	.quad	8268148722764581231
	.quad	-9160688886553864527
	.quad	-7215885187991268811
	.quad	-4495734319001033068
	.quad	-1973867731355612462
	.quad	-1171420211273849373
	.quad	1135362057144423861
	.quad	2597628984639134821
	.quad	3308224258029322869
	.quad	5365058923640841347
	.quad	6679025012923562964
	.quad	8573033837759648693
	.quad	-7476448914759557205
	.quad	-6327057829258317296
	.quad	-5763719355590565569
	.quad	-4658551843659510044
	.quad	-4116276920077217854
	.quad	-3051310485924567259
	.quad	489312712824947311
	.quad	1452737877330783856
	.quad	2861767655752347644
	.quad	3322285676063803686
	.quad	5560940570517711597
	.quad	5996557281743188959
	.quad	7280758554555802590
	.quad	8532644243296465576
	.quad	-9096487096722542874
	.quad	-7894198246740708037
	.quad	-6719396339535248540
	.quad	-6333637450476146687
	.quad	-4446306890439682159
	.quad	-4076793802049405392
	.quad	-3345356375505022440
	.quad	-2983346525034927856
	.quad	-860691631967231958
	.quad	1182934255886127544
	.quad	1847814050463011016
	.quad	2177327727835720531
	.quad	2830643537854262169
	.quad	3796741975233480872
	.quad	4115178125766777443
	.quad	5681478168544905931
	.quad	6601373596472566643
	.quad	7507060721942968483
	.quad	8399075790359081724
	.quad	8693463985226723168
	.quad	-8878714635349349518
	.quad	-8302665154208450068
	.quad	-8016688836872298968
	.quad	-6606660893046293015
	.quad	-4685533653050689259
	.quad	-4147400797238176981
	.quad	-3880063495543823972
	.quad	-3348786107499101689
	.quad	-1523767162380948706
	.quad	-757361751448694408
	.quad	500013540394364858
	.quad	748580250866718886
	.quad	1242879168328830382
	.quad	1977374033974150939
	.quad	2944078676154940804
	.quad	3659926193048069267
	.quad	4368137639120453308
	.quad	4836135668995329356
	.quad	5532061633213252278
	.quad	6448918945643986474
	.quad	6902733635092675308
	.quad	7801388544844847127
	.section	.rodata.cst16,"aM",@progbits,16
	.align 4
.LC0:
	.byte	7
	.byte	6
	.byte	5
	.byte	4
	.byte	3
	.byte	2
	.byte	1
	.byte	0
	.byte	15
	.byte	14
	.byte	13
	.byte	12
	.byte	11
	.byte	10
	.byte	9
	.byte	8
.LC1:
	.byte	0
	.byte	1
	.byte	2
	.byte	3
	.byte	4
	.byte	5
	.byte	6
	.byte	7
	.byte	16
	.byte	17
	.byte	18
	.byte	19
	.byte	20
	.byte	21
	.byte	22
	.byte	23
	.section	.note.GNU-stack,"",@progbits
#endif
